target datalayout = "e-m:e-p270:32:32-p271:32:32-p272:64:64-i64:64-i128:128-f80:128-n8:16:32:64-S128"
target triple = "x86_64-pc-linux-gnu"

%"struct.duckdb::LogicalType" = type { i8, i8, %"class.duckdb::shared_ptr.168" }
%"class.duckdb::shared_ptr.168" = type { %"class.std::shared_ptr.169" }
%"class.std::shared_ptr.169" = type { %"class.std::__shared_ptr.170" }
%"class.std::__shared_ptr.170" = type { ptr, %"class.std::__shared_count" }
%"class.std::__shared_count" = type { ptr }
%"class.std::__cxx11::basic_string" = type { %"struct.std::__cxx11::basic_string<char>::_Alloc_hider", i64, %union.anon }
%"struct.std::__cxx11::basic_string<char>::_Alloc_hider" = type { ptr }
%union.anon = type { i64, [8 x i8] }
%"class.duckdb::unique_ptr" = type { %"class.std::unique_ptr" }
%"class.std::unique_ptr" = type { %"struct.std::__uniq_ptr_data" }
%"struct.std::__uniq_ptr_data" = type { %"class.std::__uniq_ptr_impl" }
%"class.std::__uniq_ptr_impl" = type { %"class.std::tuple" }
%"class.std::tuple" = type { %"struct.std::_Tuple_impl" }
%"struct.std::_Tuple_impl" = type { %"struct.std::_Head_base.1" }
%"struct.std::_Head_base.1" = type { ptr }
%"class.duckdb::optional_idx" = type { i64 }
%"struct.duckdb::ParquetColumnSchema" = type { i32, %"class.std::__cxx11::basic_string", %"struct.duckdb::LogicalType", i64, i64, i64, i64, %"class.duckdb::optional_idx", i32, i32, i32, i32, %"class.duckdb::vector.172" }
%"class.duckdb::vector.172" = type { %"class.std::vector.173" }
%"class.std::vector.173" = type { %"struct.std::_Vector_base.174" }
%"struct.std::_Vector_base.174" = type { %"struct.std::_Vector_base<duckdb::ParquetColumnSchema, std::allocator<duckdb::ParquetColumnSchema>>::_Vector_impl" }
%"struct.std::_Vector_base<duckdb::ParquetColumnSchema, std::allocator<duckdb::ParquetColumnSchema>>::_Vector_impl" = type { %"struct.std::_Vector_base<duckdb::ParquetColumnSchema, std::allocator<duckdb::ParquetColumnSchema>>::_Vector_impl_data" }
%"struct.std::_Vector_base<duckdb::ParquetColumnSchema, std::allocator<duckdb::ParquetColumnSchema>>::_Vector_impl_data" = type { ptr, ptr, ptr }

; Function Attrs: mustprogress uwtable
define void @_ZN6duckdb19ParquetDecimalUtils12CreateReaderERNS_13ParquetReaderERKNS_19ParquetColumnSchemaE(ptr dead_on_unwind noalias writable sret(%"class.duckdb::unique_ptr") align 8 %0, ptr noundef nonnull align 8 dereferenceable(560) %1, ptr noundef nonnull align 8 dereferenceable(144) %2) #4 align 2 {
  %4 = alloca ptr, align 8
  %5 = alloca ptr, align 8
  %6 = alloca ptr, align 8
  store ptr %0, ptr %4, align 8
  store ptr %1, ptr %5, align 8, !tbaa !255
  store ptr %2, ptr %6, align 8, !tbaa !185
  %7 = load ptr, ptr %6, align 8, !tbaa !185
  %8 = getelementptr inbounds nuw %"struct.duckdb::ParquetColumnSchema", ptr %7, i32 0, i32 8
  %9 = load i32, ptr %8, align 8, !tbaa !256
  %10 = icmp ugt i32 %9, 0
  br i1 %10, label %11, label %14

11:                                               ; preds = %3
  %12 = load ptr, ptr %5, align 8, !tbaa !255
  %13 = load ptr, ptr %6, align 8, !tbaa !185
  call void @_ZN6duckdb27CreateDecimalReaderInternalILb1EEENS_10unique_ptrINS_12ColumnReaderESt14default_deleteIS2_ELb1EEERNS_13ParquetReaderERKNS_19ParquetColumnSchemaE(ptr dead_on_unwind writable sret(%"class.duckdb::unique_ptr") align 8 %0, ptr noundef nonnull align 8 dereferenceable(560) %12, ptr noundef nonnull align 8 dereferenceable(144) %13)
  br label %17

14:                                               ; preds = %3
  %15 = load ptr, ptr %5, align 8, !tbaa !255
  %16 = load ptr, ptr %6, align 8, !tbaa !185
  call void @_ZN6duckdb27CreateDecimalReaderInternalILb0EEENS_10unique_ptrINS_12ColumnReaderESt14default_deleteIS2_ELb1EEERNS_13ParquetReaderERKNS_19ParquetColumnSchemaE(ptr dead_on_unwind writable sret(%"class.duckdb::unique_ptr") align 8 %0, ptr noundef nonnull align 8 dereferenceable(560) %15, ptr noundef nonnull align 8 dereferenceable(144) %16)
  br label %17

17:                                               ; preds = %14, %11
  ret void
}