; Function Attrs: mustprogress uwtable
define void @_ZN6duckdb19ParquetDecimalUtils12CreateReaderERNS_13ParquetReaderERKNS_19ParquetColumnSchemaE(ptr dead_on_unwind noalias writable sret(%"class.duckdb::unique_ptr") align 8 %0, ptr noundef nonnull align 8 dereferenceable(560) %1, ptr noundef nonnull align 8 dereferenceable(144) %2) local_unnamed_addr #3 align 2 {
  %4 = getelementptr inbounds nuw i8, ptr %2, i64 104
  %5 = load i32, ptr %4, align 8, !tbaa !221
  %.not = icmp eq i32 %5, 0
  br i1 %.not, label %7, label %6

6:                                                ; preds = %3
  tail call void @_ZN6duckdb27CreateDecimalReaderInternalILb1EEENS_10unique_ptrINS_12ColumnReaderESt14default_deleteIS2_ELb1EEERNS_13ParquetReaderERKNS_19ParquetColumnSchemaE(ptr dead_on_unwind writable sret(%"class.duckdb::unique_ptr") align 8 %0, ptr noundef nonnull align 8 dereferenceable(560) %1, ptr noundef nonnull align 8 dereferenceable(144) %2)
  br label %8

7:                                                ; preds = %3
  tail call void @_ZN6duckdb27CreateDecimalReaderInternalILb0EEENS_10unique_ptrINS_12ColumnReaderESt14default_deleteIS2_ELb1EEERNS_13ParquetReaderERKNS_19ParquetColumnSchemaE(ptr dead_on_unwind writable sret(%"class.duckdb::unique_ptr") align 8 %0, ptr noundef nonnull align 8 dereferenceable(560) %1, ptr noundef nonnull align 8 dereferenceable(144) %2)
  br label %8

8:                                                ; preds = %7, %6
  ret void
}